target datalayout = "e-m:e-p270:32:32-p271:32:32-p272:64:64-i64:64-i128:128-f80:128-n8:16:32:64-S128"
target triple = "x86_64-pc-linux-gnu"

; Function Attrs: nounwind uwtable
define internal zeroext i1 @get_int_msb_first(ptr noundef %0, i64 noundef %1, ptr noundef %2) #0 {
  %4 = alloca i1, align 1
  %5 = alloca ptr, align 8
  %6 = alloca i64, align 8
  %7 = alloca ptr, align 8
  %8 = alloca i32, align 4
  %9 = alloca i32, align 4
  %10 = alloca i64, align 8
  store ptr %0, ptr %5, align 8
  store i64 %1, ptr %6, align 8
  store ptr %2, ptr %7, align 8
  store i32 0, ptr %9, align 4
  store i64 0, ptr %10, align 8
  br label %11

11:                                               ; preds = %28, %3
  %12 = load i64, ptr %10, align 8
  %13 = load i64, ptr %6, align 8
  %14 = icmp ult i64 %12, %13
  br i1 %14, label %15, label %31

15:                                               ; preds = %11
  %16 = load ptr, ptr %5, align 8
  %17 = call i32 @fgetc(ptr noundef %16)
  store i32 %17, ptr %8, align 4
  %18 = load ptr, ptr %5, align 8
  %19 = call i32 @feof(ptr noundef %18) #13
  %20 = icmp ne i32 %19, 0
  br i1 %20, label %21, label %22

21:                                               ; preds = %15
  store i1 false, ptr %4, align 1
  br label %38

22:                                               ; preds = %15
  %23 = load i32, ptr %9, align 4
  %24 = shl i32 %23, 8
  store i32 %24, ptr %9, align 4
  %25 = load i32, ptr %8, align 4
  %26 = load i32, ptr %9, align 4
  %27 = or i32 %26, %25
  store i32 %27, ptr %9, align 4
  br label %28

28:                                               ; preds = %22
  %29 = load i64, ptr %10, align 8
  %30 = add i64 %29, 1
  store i64 %30, ptr %10, align 8
  br label %11

31:                                               ; preds = %11
  %32 = load i32, ptr %9, align 4
  %33 = icmp ugt i32 %32, 2147483647
  br i1 %33, label %34, label %35

34:                                               ; preds = %31
  store i1 false, ptr %4, align 1
  br label %38

35:                                               ; preds = %31
  %36 = load i32, ptr %9, align 4
  %37 = load ptr, ptr %7, align 8
  store i32 %36, ptr %37, align 4
  store i1 true, ptr %4, align 1
  br label %38

38:                                               ; preds = %35, %34, %21
  %39 = load i1, ptr %4, align 1
  ret i1 %39
}