; Function Attrs: nofree nounwind uwtable
define internal fastcc noundef zeroext i1 @get_int_msb_first(ptr noundef captures(none) %0, i64 noundef range(i64 1, 5) %1, ptr noundef nonnull writeonly captures(none) %2) unnamed_addr #5 {
  br label %4

4:                                                ; preds = %3, %7
  %.015 = phi i64 [ 0, %3 ], [ %10, %7 ]
  %.01114 = phi i32 [ 0, %3 ], [ %9, %7 ]
  %5 = tail call i32 @fgetc(ptr noundef %0)
  %6 = tail call i32 @feof(ptr noundef %0) #21
  %.not = icmp eq i32 %6, 0
  br i1 %.not, label %7, label %.loopexit

7:                                                ; preds = %4
  %8 = shl i32 %.01114, 8
  %9 = or i32 %5, %8
  %10 = add nuw nsw i64 %.015, 1
  %exitcond.not = icmp eq i64 %10, %1
  br i1 %exitcond.not, label %11, label %4

11:                                               ; preds = %7
  %12 = icmp slt i32 %9, 0
  br i1 %12, label %.loopexit, label %13

13:                                               ; preds = %11
  store i32 %9, ptr %2, align 4
  br label %.loopexit

.loopexit:                                        ; preds = %4, %11, %13
  %.012 = phi i1 [ true, %13 ], [ false, %11 ], [ false, %4 ]
  ret i1 %.012
}